target datalayout = "e-m:e-p270:32:32-p271:32:32-p272:64:64-i64:64-i128:128-f80:128-n8:16:32:64-S128"
target triple = "x86_64-pc-linux-gnu"

%struct.AVProbeData = type { ptr, ptr, i32, ptr }

@ff_voc_magic = external constant [21 x i8], align 16

; Function Attrs: nounwind uwtable
define internal i32 @voc_probe(ptr noundef %0) #0 {
  %2 = alloca i32, align 4
  %3 = alloca ptr, align 8
  %4 = alloca i32, align 4
  %5 = alloca i32, align 4
  %6 = alloca i32, align 4
  store ptr %0, ptr %3, align 8, !tbaa !4
  call void @llvm.lifetime.start.p0(i64 4, ptr %4) #5
  call void @llvm.lifetime.start.p0(i64 4, ptr %5) #5
  %7 = load ptr, ptr %3, align 8, !tbaa !4
  %8 = getelementptr inbounds nuw %struct.AVProbeData, ptr %7, i32 0, i32 1
  %9 = load ptr, ptr %8, align 8, !tbaa !9
  %10 = call i32 @memcmp(ptr noundef %9, ptr noundef @ff_voc_magic, i64 noundef 20) #6
  %11 = icmp ne i32 %10, 0
  br i1 %11, label %12, label %13

12:                                               ; preds = %1
  store i32 0, ptr %2, align 4
  store i32 1, ptr %6, align 4
  br label %33

13:                                               ; preds = %1
  %14 = load ptr, ptr %3, align 8, !tbaa !4
  %15 = getelementptr inbounds nuw %struct.AVProbeData, ptr %14, i32 0, i32 1
  %16 = load ptr, ptr %15, align 8, !tbaa !9
  %17 = getelementptr inbounds i8, ptr %16, i64 22
  %18 = load i16, ptr %17, align 1, !tbaa !13
  %19 = zext i16 %18 to i32
  store i32 %19, ptr %4, align 4, !tbaa !14
  %20 = load ptr, ptr %3, align 8, !tbaa !4
  %21 = getelementptr inbounds nuw %struct.AVProbeData, ptr %20, i32 0, i32 1
  %22 = load ptr, ptr %21, align 8, !tbaa !9
  %23 = getelementptr inbounds i8, ptr %22, i64 24
  %24 = load i16, ptr %23, align 1, !tbaa !13
  %25 = zext i16 %24 to i32
  store i32 %25, ptr %5, align 4, !tbaa !14
  %26 = load i32, ptr %4, align 4, !tbaa !14
  %27 = xor i32 %26, -1
  %28 = add nsw i32 %27, 4660
  %29 = load i32, ptr %5, align 4, !tbaa !14
  %30 = icmp ne i32 %28, %29
  br i1 %30, label %31, label %32

31:                                               ; preds = %13
  store i32 10, ptr %2, align 4
  store i32 1, ptr %6, align 4
  br label %33

32:                                               ; preds = %13
  store i32 100, ptr %2, align 4
  store i32 1, ptr %6, align 4
  br label %33

33:                                               ; preds = %32, %31, %12
  call void @llvm.lifetime.end.p0(i64 4, ptr %5) #5
  call void @llvm.lifetime.end.p0(i64 4, ptr %4) #5
  %34 = load i32, ptr %2, align 4
  ret i32 %34
}