; Function Attrs: mustprogress nofree norecurse nounwind willreturn memory(read, inaccessiblemem: none) uwtable
define internal range(i32 0, 101) i32 @voc_probe(ptr noundef readonly captures(none) %0) #0 {
  %2 = getelementptr inbounds nuw i8, ptr %0, i64 8
  %3 = load ptr, ptr %2, align 8, !tbaa !4
  %bcmp = tail call i32 @bcmp(ptr noundef nonnull dereferenceable(20) %3, ptr noundef nonnull dereferenceable(20) @ff_voc_magic, i64 20)
  %.not = icmp eq i32 %bcmp, 0
  br i1 %.not, label %4, label %12

4:                                                ; preds = %1
  %5 = getelementptr inbounds nuw i8, ptr %3, i64 22
  %6 = load i16, ptr %5, align 1, !tbaa !11
  %7 = zext i16 %6 to i32
  %8 = getelementptr inbounds nuw i8, ptr %3, i64 24
  %9 = load i16, ptr %8, align 1, !tbaa !11
  %10 = zext i16 %9 to i32
  %11 = sub nsw i32 4659, %7
  %.not5 = icmp eq i32 %11, %10
  %. = select i1 %.not5, i32 100, i32 10
  br label %12

12:                                               ; preds = %4, %1
  %.0 = phi i32 [ 0, %1 ], [ %., %4 ]
  ret i32 %.0
}